target datalayout = "e-m:e-p270:32:32-p271:32:32-p272:64:64-i64:64-i128:128-f80:128-n8:16:32:64-S128"
target triple = "x86_64-pc-linux-gnu"

%struct.tag_name_st = type { ptr, i32, i32 }

@.str.57 = private unnamed_addr constant [4 x i8] c"DIR\00", align 1

; Function Attrs: nounwind uwtable
define internal i32 @asn1_str2tag(ptr noundef %0, i32 noundef %1) #0 {
  %3 = alloca i32, align 4
  %4 = alloca ptr, align 8
  %5 = alloca i32, align 4
  %6 = alloca i32, align 4
  %7 = alloca ptr, align 8
  %8 = alloca i32, align 4
  store ptr %0, ptr %4, align 8, !tbaa !3
  store i32 %1, ptr %5, align 4, !tbaa !12
  call void @llvm.lifetime.start.p0(i64 4, ptr %6) #7
  call void @llvm.lifetime.start.p0(i64 8, ptr %7) #7
  %9 = load i32, ptr %5, align 4, !tbaa !12
  %10 = icmp eq i32 %9, -1
  br i1 %10, label %11, label %15

11:                                               ; preds = %2
  %12 = load ptr, ptr %4, align 8, !tbaa !3
  %13 = call i64 @strlen(ptr noundef %12) #8
  %14 = trunc i64 %13 to i32
  store i32 %14, ptr %5, align 4, !tbaa !12
  br label %15

15:                                               ; preds = %11, %2
  store ptr @asn1_str2tag.tnst, ptr %7, align 8, !tbaa !56
  store i32 0, ptr %6, align 4, !tbaa !12
  br label %16

16:                                               ; preds = %40, %15
  %17 = load i32, ptr %6, align 4, !tbaa !12
  %18 = zext i32 %17 to i64
  %19 = icmp ult i64 %18, 49
  br i1 %19, label %20, label %45

20:                                               ; preds = %16
  %21 = load i32, ptr %5, align 4, !tbaa !12
  %22 = load ptr, ptr %7, align 8, !tbaa !56
  %23 = getelementptr inbounds nuw %struct.tag_name_st, ptr %22, i32 0, i32 1
  %24 = load i32, ptr %23, align 8, !tbaa !58
  %25 = icmp eq i32 %21, %24
  br i1 %25, label %26, label %39

26:                                               ; preds = %20
  %27 = load ptr, ptr %7, align 8, !tbaa !56
  %28 = getelementptr inbounds nuw %struct.tag_name_st, ptr %27, i32 0, i32 0
  %29 = load ptr, ptr %28, align 8, !tbaa !60
  %30 = load ptr, ptr %4, align 8, !tbaa !3
  %31 = load i32, ptr %5, align 4, !tbaa !12
  %32 = sext i32 %31 to i64
  %33 = call i32 @OPENSSL_strncasecmp(ptr noundef %29, ptr noundef %30, i64 noundef %32)
  %34 = icmp eq i32 %33, 0
  br i1 %34, label %35, label %39

35:                                               ; preds = %26
  %36 = load ptr, ptr %7, align 8, !tbaa !56
  %37 = getelementptr inbounds nuw %struct.tag_name_st, ptr %36, i32 0, i32 2
  %38 = load i32, ptr %37, align 4, !tbaa !61
  store i32 %38, ptr %3, align 4
  store i32 1, ptr %8, align 4
  br label %46

39:                                               ; preds = %26, %20
  br label %40

40:                                               ; preds = %39
  %41 = load i32, ptr %6, align 4, !tbaa !12
  %42 = add i32 %41, 1
  store i32 %42, ptr %6, align 4, !tbaa !12
  %43 = load ptr, ptr %7, align 8, !tbaa !56
  %44 = getelementptr inbounds nuw %struct.tag_name_st, ptr %43, i32 1
  store ptr %44, ptr %7, align 8, !tbaa !56
  br label %16, !llvm.loop !62

45:                                               ; preds = %16
  store i32 -1, ptr %3, align 4
  store i32 1, ptr %8, align 4
  br label %46

46:                                               ; preds = %45, %35
  call void @llvm.lifetime.end.p0(i64 8, ptr %7) #7
  call void @llvm.lifetime.end.p0(i64 4, ptr %6) #7
  %47 = load i32, ptr %3, align 4
  ret i32 %47
}

; Function Attrs: nounwind uwtable
define internal i32 @mask_cb(ptr noundef %0, i32 noundef %1, ptr noundef %2) #0 {
  %4 = alloca i32, align 4
  %5 = alloca ptr, align 8
  %6 = alloca i32, align 4
  %7 = alloca ptr, align 8
  %8 = alloca ptr, align 8
  %9 = alloca i64, align 8
  %10 = alloca i32, align 4
  %11 = alloca i32, align 4
  store ptr %0, ptr %5, align 8, !tbaa !3
  store i32 %1, ptr %6, align 4, !tbaa !12
  store ptr %2, ptr %7, align 8, !tbaa !27
  call void @llvm.lifetime.start.p0(i64 8, ptr %8) #7
  %12 = load ptr, ptr %7, align 8, !tbaa !27
  store ptr %12, ptr %8, align 8, !tbaa !38
  call void @llvm.lifetime.start.p0(i64 8, ptr %9) #7
  call void @llvm.lifetime.start.p0(i64 4, ptr %10) #7
  %13 = load ptr, ptr %5, align 8, !tbaa !3
  %14 = icmp eq ptr %13, null
  br i1 %14, label %15, label %16

15:                                               ; preds = %3
  store i32 0, ptr %4, align 4
  store i32 1, ptr %11, align 4
  br label %49

16:                                               ; preds = %3
  %17 = load i32, ptr %6, align 4, !tbaa !12
  %18 = icmp eq i32 %17, 3
  br i1 %18, label %19, label %27

19:                                               ; preds = %16
  %20 = load ptr, ptr %5, align 8, !tbaa !3
  %21 = call i32 @strncmp(ptr noundef %20, ptr noundef @.str.57, i64 noundef 3) #8
  %22 = icmp eq i32 %21, 0
  br i1 %22, label %23, label %27

23:                                               ; preds = %19
  %24 = load ptr, ptr %8, align 8, !tbaa !38
  %25 = load i64, ptr %24, align 8, !tbaa !18
  %26 = or i64 %25, 10502
  store i64 %26, ptr %24, align 8, !tbaa !18
  store i32 1, ptr %4, align 4
  store i32 1, ptr %11, align 4
  br label %49

27:                                               ; preds = %19, %16
  %28 = load ptr, ptr %5, align 8, !tbaa !3
  %29 = load i32, ptr %6, align 4, !tbaa !12
  %30 = call i32 @asn1_str2tag(ptr noundef %28, i32 noundef %29)
  store i32 %30, ptr %10, align 4, !tbaa !12
  %31 = load i32, ptr %10, align 4, !tbaa !12
  %32 = icmp ne i32 %31, 0
  br i1 %32, label %33, label %37

33:                                               ; preds = %27
  %34 = load i32, ptr %10, align 4, !tbaa !12
  %35 = and i32 %34, 65536
  %36 = icmp ne i32 %35, 0
  br i1 %36, label %37, label %38

37:                                               ; preds = %33, %27
  store i32 0, ptr %4, align 4
  store i32 1, ptr %11, align 4
  br label %49

38:                                               ; preds = %33
  %39 = load i32, ptr %10, align 4, !tbaa !12
  %40 = call i64 @ASN1_tag2bit(i32 noundef %39)
  store i64 %40, ptr %9, align 8, !tbaa !18
  %41 = load i64, ptr %9, align 8, !tbaa !18
  %42 = icmp ne i64 %41, 0
  br i1 %42, label %44, label %43

43:                                               ; preds = %38
  store i32 0, ptr %4, align 4
  store i32 1, ptr %11, align 4
  br label %49

44:                                               ; preds = %38
  %45 = load i64, ptr %9, align 8, !tbaa !18
  %46 = load ptr, ptr %8, align 8, !tbaa !38
  %47 = load i64, ptr %46, align 8, !tbaa !18
  %48 = or i64 %47, %45
  store i64 %48, ptr %46, align 8, !tbaa !18
  store i32 1, ptr %4, align 4
  store i32 1, ptr %11, align 4
  br label %49

49:                                               ; preds = %44, %43, %37, %23, %15
  call void @llvm.lifetime.end.p0(i64 4, ptr %10) #7
  call void @llvm.lifetime.end.p0(i64 8, ptr %9) #7
  call void @llvm.lifetime.end.p0(i64 8, ptr %8) #7
  %50 = load i32, ptr %4, align 4
  ret i32 %50
}