; Function Attrs: nounwind uwtable
define internal range(i32 0, 2) i32 @mask_cb(ptr noundef %0, i32 noundef %1, ptr noundef captures(none) %2) #0 {
  %4 = icmp eq ptr %0, null
  br i1 %4, label %asn1_str2tag.exit.thread, label %5

5:                                                ; preds = %3
  switch i32 %1, label %9 [
    i32 3, label %sub_0
    i32 -1, label %6
  ]

6:                                                ; preds = %5
  %7 = tail call i64 @strlen(ptr noundef nonnull dereferenceable(1) %0) #8
  %8 = trunc i64 %7 to i32
  br label %9

9:                                                ; preds = %5, %6
  %.012.i = phi i32 [ %8, %6 ], [ %1, %5 ]
  %10 = sext i32 %.012.i to i64
  br label %11

11:                                               ; preds = %19, %9
  %.017.i = phi ptr [ @asn1_str2tag.tnst, %9 ], [ %21, %19 ]
  %.01116.i = phi i32 [ 0, %9 ], [ %20, %19 ]
  %12 = getelementptr inbounds nuw i8, ptr %.017.i, i64 8
  %13 = load i32, ptr %12, align 8, !tbaa !38
  %14 = icmp eq i32 %.012.i, %13
  br i1 %14, label %15, label %19

15:                                               ; preds = %11
  %16 = load ptr, ptr %.017.i, align 8, !tbaa !40
  %17 = tail call i32 @OPENSSL_strncasecmp(ptr noundef %16, ptr noundef nonnull %0, i64 noundef %10) #7
  %18 = icmp eq i32 %17, 0
  br i1 %18, label %asn1_str2tag.exit, label %19

19:                                               ; preds = %15, %11
  %20 = add nuw nsw i32 %.01116.i, 1
  %21 = getelementptr inbounds nuw i8, ptr %.017.i, i64 16
  %exitcond.not.i = icmp eq i32 %20, 49
  br i1 %exitcond.not.i, label %asn1_str2tag.exit.thread, label %11, !llvm.loop !41

sub_0:                                            ; preds = %5
  %22 = load i8, ptr %0, align 1
  %.not33 = icmp eq i8 %22, 68
  br i1 %.not33, label %sub_1, label %.split13.preheader

sub_1:                                            ; preds = %sub_0
  %23 = getelementptr inbounds nuw i8, ptr %0, i64 1
  %24 = load i8, ptr %23, align 1
  %.not34 = icmp eq i8 %24, 73
  br i1 %.not34, label %.tail, label %.split13.preheader

.tail:                                            ; preds = %sub_1
  %25 = getelementptr inbounds nuw i8, ptr %0, i64 2
  %26 = load i8, ptr %25, align 1
  %27 = icmp eq i8 %26, 82
  br i1 %27, label %asn1_str2tag.exit.thread.sink.split, label %.split13.preheader

.split13.preheader:                               ; preds = %sub_1, %sub_0, %.tail
  br label %.split13

.split13:                                         ; preds = %.split13.preheader, %35
  %.017.i20 = phi ptr [ %37, %35 ], [ @asn1_str2tag.tnst, %.split13.preheader ]
  %.01116.i21 = phi i32 [ %36, %35 ], [ 0, %.split13.preheader ]
  %28 = getelementptr inbounds nuw i8, ptr %.017.i20, i64 8
  %29 = load i32, ptr %28, align 8, !tbaa !38
  %30 = icmp eq i32 %29, 3
  br i1 %30, label %31, label %35

31:                                               ; preds = %.split13
  %32 = load ptr, ptr %.017.i20, align 8, !tbaa !40
  %33 = tail call i32 @OPENSSL_strncasecmp(ptr noundef %32, ptr noundef nonnull %0, i64 noundef 3) #7
  %34 = icmp eq i32 %33, 0
  br i1 %34, label %asn1_str2tag.exit, label %35

35:                                               ; preds = %31, %.split13
  %36 = add nuw nsw i32 %.01116.i21, 1
  %37 = getelementptr inbounds nuw i8, ptr %.017.i20, i64 16
  %exitcond.not.i22 = icmp eq i32 %36, 49
  br i1 %exitcond.not.i22, label %asn1_str2tag.exit.thread, label %.split13, !llvm.loop !41

asn1_str2tag.exit:                                ; preds = %31, %15
  %.017.i.pn = phi ptr [ %.017.i, %15 ], [ %.017.i20, %31 ]
  %phi.call.in = getelementptr inbounds nuw i8, ptr %.017.i.pn, i64 12
  %phi.call = load i32, ptr %phi.call.in, align 4, !tbaa !42
  %.not = icmp ne i32 %phi.call, 0
  %38 = and i32 %phi.call, 65536
  %.not17 = icmp eq i32 %38, 0
  %or.cond = and i1 %.not, %.not17
  br i1 %or.cond, label %39, label %asn1_str2tag.exit.thread

39:                                               ; preds = %asn1_str2tag.exit
  %40 = tail call i64 @ASN1_tag2bit(i32 noundef %phi.call) #7
  %.not18 = icmp eq i64 %40, 0
  br i1 %.not18, label %asn1_str2tag.exit.thread, label %asn1_str2tag.exit.thread.sink.split

asn1_str2tag.exit.thread.sink.split:              ; preds = %39, %.tail
  %.sink44 = phi i64 [ 10502, %.tail ], [ %40, %39 ]
  %41 = load i64, ptr %2, align 8, !tbaa !10
  %42 = or i64 %41, %.sink44
  store i64 %42, ptr %2, align 8, !tbaa !10
  br label %asn1_str2tag.exit.thread

asn1_str2tag.exit.thread:                         ; preds = %35, %19, %asn1_str2tag.exit.thread.sink.split, %39, %asn1_str2tag.exit, %3
  %.0 = phi i32 [ 0, %3 ], [ 0, %asn1_str2tag.exit ], [ 0, %39 ], [ 1, %asn1_str2tag.exit.thread.sink.split ], [ 0, %19 ], [ 0, %35 ]
  ret i32 %.0
}